---
triple:          'arm64-apple-darwin'
binary-path:     '/Users/peter/Desktop/cf/output/1962B'
relocations:
  - { offsetInCU: 0x3F, offset: 0x3F, size: 0x8, addend: 0x0, symName: _T, symObjAddr: 0x387E0, symBinAddr: 0x10000C000, symSize: 0x0 }
  - { offsetInCU: 0x5B, offset: 0x5B, size: 0x8, addend: 0x0, symName: _N, symObjAddr: 0x387E4, symBinAddr: 0x10000C004, symSize: 0x0 }
  - { offsetInCU: 0x8785, offset: 0x8785, size: 0x8, addend: 0x0, symName: __ZNSt3__1rsB8ue170006IcNS_11char_traitsIcEENS_9allocatorIcEEEERNS_13basic_istreamIT_T0_EES9_RNS_12basic_stringIS6_S7_T1_EE, symObjAddr: 0x320, symBinAddr: 0x1000038E0, symSize: 0x324 }
  - { offsetInCU: 0x8854, offset: 0x8854, size: 0x8, addend: 0x0, symName: __ZNSt3__1neB8ue170006IPcEEbRKNS_11__wrap_iterIT_EES6_, symObjAddr: 0x6F8, symBinAddr: 0x100003CB8, symSize: 0x34 }
  - { offsetInCU: 0x88CA, offset: 0x88CA, size: 0x8, addend: 0x0, symName: __ZNSt3__130__libcpp_is_constant_evaluatedB8ue170006Ev, symObjAddr: 0xF00, symBinAddr: 0x1000044C0, symSize: 0xC }
  - { offsetInCU: 0x88E7, offset: 0x88E7, size: 0x8, addend: 0x0, symName: __ZNSt3__119__libcpp_deallocateB8ue170006EPvmm, symObjAddr: 0xF0C, symBinAddr: 0x1000044CC, symSize: 0x30 }
  - { offsetInCU: 0x892F, offset: 0x892F, size: 0x8, addend: 0x0, symName: __ZNSt3__127__do_deallocate_handle_sizeB8ue170006IJEEEvPvmDpT_, symObjAddr: 0xF3C, symBinAddr: 0x1000044FC, symSize: 0x28 }
  - { offsetInCU: 0x896D, offset: 0x896D, size: 0x8, addend: 0x0, symName: __ZNSt3__124__libcpp_operator_deleteB8ue170006IJPvEEEvDpT_, symObjAddr: 0xF64, symBinAddr: 0x100004524, symSize: 0x24 }
  - { offsetInCU: 0x89A2, offset: 0x89A2, size: 0x8, addend: 0x0, symName: __ZNSt3__117__libcpp_allocateB8ue170006Emm, symObjAddr: 0x1AE8, symBinAddr: 0x1000050A8, symSize: 0x28 }
  - { offsetInCU: 0x89DF, offset: 0x89DF, size: 0x8, addend: 0x0, symName: __ZNSt3__121__libcpp_operator_newB8ue170006IJmEEEPvDpT_, symObjAddr: 0x1B24, symBinAddr: 0x1000050E4, symSize: 0x24 }
  - { offsetInCU: 0x9853, offset: 0x9853, size: 0x8, addend: 0x0, symName: __ZNSt3__19use_facetB8ue170006INS_5ctypeIcEEEERKT_RKNS_6localeE, symObjAddr: 0x1CEC, symBinAddr: 0x1000052AC, symSize: 0x2C }
  - { offsetInCU: 0x9E66, offset: 0x9E66, size: 0x8, addend: 0x0, symName: __ZNSt3__1eqB8ue170006IPcEEbRKNS_11__wrap_iterIT_EES6_, symObjAddr: 0x2418, symBinAddr: 0x1000059D8, symSize: 0x48 }
  - { offsetInCU: 0x9EC7, offset: 0x9EC7, size: 0x8, addend: 0x0, symName: __ZNSt3__127__tree_balance_after_insertB8ue170006IPNS_16__tree_node_baseIPvEEEEvT_S5_, symObjAddr: 0x2E20, symBinAddr: 0x1000063E0, symSize: 0x340 }
  - { offsetInCU: 0x9F3B, offset: 0x9F3B, size: 0x8, addend: 0x0, symName: __ZNSt3__120__tree_is_left_childB8ue170006IPNS_16__tree_node_baseIPvEEEEbT_, symObjAddr: 0x31A0, symBinAddr: 0x100006760, symSize: 0x2C }
  - { offsetInCU: 0x9F70, offset: 0x9F70, size: 0x8, addend: 0x0, symName: __ZNSt3__118__tree_left_rotateB8ue170006IPNS_16__tree_node_baseIPvEEEEvT_, symObjAddr: 0x31CC, symBinAddr: 0x10000678C, symSize: 0xEC }
  - { offsetInCU: 0x9FB2, offset: 0x9FB2, size: 0x8, addend: 0x0, symName: __ZNSt3__119__tree_right_rotateB8ue170006IPNS_16__tree_node_baseIPvEEEEvT_, symObjAddr: 0x32B8, symBinAddr: 0x100006878, symSize: 0xCC }
  - { offsetInCU: 0xA013, offset: 0xA013, size: 0x8, addend: 0x0, symName: __ZSt28__throw_bad_array_new_lengthB8ue170006v, symObjAddr: 0x1AB4, symBinAddr: 0x100005074, symSize: 0x34 }
  - { offsetInCU: 0xCBBF, offset: 0xCBBF, size: 0x8, addend: 0x0, symName: _main, symObjAddr: 0x0, symBinAddr: 0x1000035C0, symSize: 0x29C }
  - { offsetInCU: 0xCCD6, offset: 0xCCD6, size: 0x8, addend: 0x0, symName: __ZNSt3__13setIiNS_4lessIiEENS_9allocatorIiEEEC1B8ue170006Ev, symObjAddr: 0x29C, symBinAddr: 0x10000385C, symSize: 0x2C }
  - { offsetInCU: 0xCCFF, offset: 0xCCFF, size: 0x8, addend: 0x0, symName: __ZNSt3__13mapIciNS_4lessIcEENS_9allocatorINS_4pairIKciEEEEEC1B8ue170006Ev, symObjAddr: 0x2C8, symBinAddr: 0x100003888, symSize: 0x2C }
  - { offsetInCU: 0xCD28, offset: 0xCD28, size: 0x8, addend: 0x0, symName: __ZNSt3__112basic_stringIcNS_11char_traitsIcEENS_9allocatorIcEEEC1B8ue170006Ev, symObjAddr: 0x2F4, symBinAddr: 0x1000038B4, symSize: 0x2C }
  - { offsetInCU: 0xCD51, offset: 0xCD51, size: 0x8, addend: 0x0, symName: __ZNSt3__112basic_stringIcNS_11char_traitsIcEENS_9allocatorIcEEE5beginB8ue170006Ev, symObjAddr: 0x644, symBinAddr: 0x100003C04, symSize: 0x60 }
  - { offsetInCU: 0xCD77, offset: 0xCD77, size: 0x8, addend: 0x0, symName: __ZNSt3__112basic_stringIcNS_11char_traitsIcEENS_9allocatorIcEEE3endB8ue170006Ev, symObjAddr: 0x6A4, symBinAddr: 0x100003C64, symSize: 0x54 }
  - { offsetInCU: 0xCD9D, offset: 0xCD9D, size: 0x8, addend: 0x0, symName: __ZNKSt3__111__wrap_iterIPcEdeB8ue170006Ev, symObjAddr: 0x72C, symBinAddr: 0x100003CEC, symSize: 0x18 }
  - { offsetInCU: 0xCDC3, offset: 0xCDC3, size: 0x8, addend: 0x0, symName: __ZNSt3__13mapIciNS_4lessIcEENS_9allocatorINS_4pairIKciEEEEEixERS5_, symObjAddr: 0x744, symBinAddr: 0x100003D04, symSize: 0xC8 }
  - { offsetInCU: 0xCE3C, offset: 0xCE3C, size: 0x8, addend: 0x0, symName: __ZNSt3__111__wrap_iterIPcEppB8ue170006Ev, symObjAddr: 0x80C, symBinAddr: 0x100003DCC, symSize: 0x20 }
  - { offsetInCU: 0xCE62, offset: 0xCE62, size: 0x8, addend: 0x0, symName: __ZNSt3__13setIiNS_4lessIiEENS_9allocatorIiEEE6insertB8ue170006ERKi, symObjAddr: 0x82C, symBinAddr: 0x100003DEC, symSize: 0x4C }
  - { offsetInCU: 0xCE97, offset: 0xCE97, size: 0x8, addend: 0x0, symName: __ZNSt3__13mapIciNS_4lessIcEENS_9allocatorINS_4pairIKciEEEEED1B8ue170006Ev, symObjAddr: 0x884, symBinAddr: 0x100003E44, symSize: 0x2C }
  - { offsetInCU: 0xCEC0, offset: 0xCEC0, size: 0x8, addend: 0x0, symName: __ZNKSt3__13setIiNS_4lessIiEENS_9allocatorIiEEE4sizeB8ue170006Ev, symObjAddr: 0x8B0, symBinAddr: 0x100003E70, symSize: 0x28 }
  - { offsetInCU: 0xCEE6, offset: 0xCEE6, size: 0x8, addend: 0x0, symName: __ZNSt3__13setIiNS_4lessIiEENS_9allocatorIiEEED1B8ue170006Ev, symObjAddr: 0x8D8, symBinAddr: 0x100003E98, symSize: 0x2C }
  - { offsetInCU: 0xCF0F, offset: 0xCF0F, size: 0x8, addend: 0x0, symName: __ZNSt3__13setIiNS_4lessIiEENS_9allocatorIiEEEC2B8ue170006Ev, symObjAddr: 0x904, symBinAddr: 0x100003EC4, symSize: 0x30 }
  - { offsetInCU: 0xCF38, offset: 0xCF38, size: 0x8, addend: 0x0, symName: __ZNSt3__16__treeIiNS_4lessIiEENS_9allocatorIiEEEC1ERKS2_, symObjAddr: 0x934, symBinAddr: 0x100003EF4, symSize: 0x34 }
  - { offsetInCU: 0xCF73, offset: 0xCF73, size: 0x8, addend: 0x0, symName: __ZNSt3__16__treeIiNS_4lessIiEENS_9allocatorIiEEEC2ERKS2_, symObjAddr: 0x968, symBinAddr: 0x100003F28, symSize: 0x70 }
  - { offsetInCU: 0xCFAE, offset: 0xCFAE, size: 0x8, addend: 0x0, symName: __ZNSt3__117__compressed_pairINS_15__tree_end_nodeIPNS_16__tree_node_baseIPvEEEENS_9allocatorINS_11__tree_nodeIiS3_EEEEEC1B8ue170006ILb1EvEEv, symObjAddr: 0x9D8, symBinAddr: 0x100003F98, symSize: 0x2C }
  - { offsetInCU: 0xCFE7, offset: 0xCFE7, size: 0x8, addend: 0x0, symName: __ZNSt3__117__compressed_pairImNS_4lessIiEEEC1B8ue170006IiRKS2_EEOT_OT0_, symObjAddr: 0xA04, symBinAddr: 0x100003FC4, symSize: 0x3C }
  - { offsetInCU: 0xD03E, offset: 0xD03E, size: 0x8, addend: 0x0, symName: __ZNSt3__16__treeIiNS_4lessIiEENS_9allocatorIiEEE10__end_nodeB8ue170006Ev, symObjAddr: 0xA40, symBinAddr: 0x100004000, symSize: 0x2C }
  - { offsetInCU: 0xD064, offset: 0xD064, size: 0x8, addend: 0x0, symName: __ZNSt3__16__treeIiNS_4lessIiEENS_9allocatorIiEEE12__begin_nodeB8ue170006Ev, symObjAddr: 0xA6C, symBinAddr: 0x10000402C, symSize: 0x14 }
  - { offsetInCU: 0xD08A, offset: 0xD08A, size: 0x8, addend: 0x0, symName: __ZNSt3__117__compressed_pairINS_15__tree_end_nodeIPNS_16__tree_node_baseIPvEEEENS_9allocatorINS_11__tree_nodeIiS3_EEEEEC2B8ue170006ILb1EvEEv, symObjAddr: 0xA80, symBinAddr: 0x100004040, symSize: 0x34 }
  - { offsetInCU: 0xD0BE, offset: 0xD0BE, size: 0x8, addend: 0x0, symName: __ZNSt3__122__compressed_pair_elemINS_15__tree_end_nodeIPNS_16__tree_node_baseIPvEEEELi0ELb0EEC2B8ue170006ENS_16__value_init_tagE, symObjAddr: 0xAB4, symBinAddr: 0x100004074, symSize: 0x2C }
  - { offsetInCU: 0xD0F2, offset: 0xD0F2, size: 0x8, addend: 0x0, symName: __ZNSt3__122__compressed_pair_elemINS_9allocatorINS_11__tree_nodeIiPvEEEELi1ELb1EEC2B8ue170006ENS_16__value_init_tagE, symObjAddr: 0xAE0, symBinAddr: 0x1000040A0, symSize: 0x2C }
  - { offsetInCU: 0xD126, offset: 0xD126, size: 0x8, addend: 0x0, symName: __ZNSt3__115__tree_end_nodeIPNS_16__tree_node_baseIPvEEEC1B8ue170006Ev, symObjAddr: 0xB0C, symBinAddr: 0x1000040CC, symSize: 0x2C }
  - { offsetInCU: 0xD14F, offset: 0xD14F, size: 0x8, addend: 0x0, symName: __ZNSt3__115__tree_end_nodeIPNS_16__tree_node_baseIPvEEEC2B8ue170006Ev, symObjAddr: 0xB38, symBinAddr: 0x1000040F8, symSize: 0x18 }
  - { offsetInCU: 0xD179, offset: 0xD179, size: 0x8, addend: 0x0, symName: __ZNSt3__19allocatorINS_11__tree_nodeIiPvEEEC2B8ue170006Ev, symObjAddr: 0xB50, symBinAddr: 0x100004110, symSize: 0x2C }
  - { offsetInCU: 0xD1A2, offset: 0xD1A2, size: 0x8, addend: 0x0, symName: __ZNSt3__116__non_trivial_ifILb1ENS_9allocatorINS_11__tree_nodeIiPvEEEEEC2B8ue170006Ev, symObjAddr: 0xB7C, symBinAddr: 0x10000413C, symSize: 0x14 }
  - { offsetInCU: 0xD1CC, offset: 0xD1CC, size: 0x8, addend: 0x0, symName: __ZNSt3__117__compressed_pairImNS_4lessIiEEEC2B8ue170006IiRKS2_EEOT_OT0_, symObjAddr: 0xB90, symBinAddr: 0x100004150, symSize: 0x44 }
  - { offsetInCU: 0xD223, offset: 0xD223, size: 0x8, addend: 0x0, symName: __ZNSt3__122__compressed_pair_elemImLi0ELb0EEC2B8ue170006IivEEOT_, symObjAddr: 0xBD4, symBinAddr: 0x100004194, symSize: 0x24 }
  - { offsetInCU: 0xD265, offset: 0xD265, size: 0x8, addend: 0x0, symName: __ZNSt3__122__compressed_pair_elemINS_4lessIiEELi1ELb1EEC2B8ue170006IRKS2_vEEOT_, symObjAddr: 0xBF8, symBinAddr: 0x1000041B8, symSize: 0x18 }
  - { offsetInCU: 0xD2A7, offset: 0xD2A7, size: 0x8, addend: 0x0, symName: __ZNSt3__114pointer_traitsIPNS_15__tree_end_nodeIPNS_16__tree_node_baseIPvEEEEE10pointer_toB8ue170006ERS6_, symObjAddr: 0xC10, symBinAddr: 0x1000041D0, symSize: 0x14 }
  - { offsetInCU: 0xD2CA, offset: 0xD2CA, size: 0x8, addend: 0x0, symName: __ZNSt3__117__compressed_pairINS_15__tree_end_nodeIPNS_16__tree_node_baseIPvEEEENS_9allocatorINS_11__tree_nodeIiS3_EEEEE5firstB8ue170006Ev, symObjAddr: 0xC24, symBinAddr: 0x1000041E4, symSize: 0x24 }
  - { offsetInCU: 0xD2F0, offset: 0xD2F0, size: 0x8, addend: 0x0, symName: __ZNSt3__122__compressed_pair_elemINS_15__tree_end_nodeIPNS_16__tree_node_baseIPvEEEELi0ELb0EE5__getB8ue170006Ev, symObjAddr: 0xC48, symBinAddr: 0x100004208, symSize: 0x14 }
  - { offsetInCU: 0xD316, offset: 0xD316, size: 0x8, addend: 0x0, symName: __ZNSt3__13setIiNS_4lessIiEENS_9allocatorIiEEED2B8ue170006Ev, symObjAddr: 0xC5C, symBinAddr: 0x10000421C, symSize: 0x2C }
  - { offsetInCU: 0xD33F, offset: 0xD33F, size: 0x8, addend: 0x0, symName: __ZNSt3__16__treeIiNS_4lessIiEENS_9allocatorIiEEED1Ev, symObjAddr: 0xC88, symBinAddr: 0x100004248, symSize: 0x2C }
  - { offsetInCU: 0xD36B, offset: 0xD36B, size: 0x8, addend: 0x0, symName: __ZNSt3__16__treeIiNS_4lessIiEENS_9allocatorIiEEED2Ev, symObjAddr: 0xCB4, symBinAddr: 0x100004274, symSize: 0x38 }
  - { offsetInCU: 0xD397, offset: 0xD397, size: 0x8, addend: 0x0, symName: __ZNSt3__16__treeIiNS_4lessIiEENS_9allocatorIiEEE7destroyEPNS_11__tree_nodeIiPvEE, symObjAddr: 0xCEC, symBinAddr: 0x1000042AC, symSize: 0xC0 }
  - { offsetInCU: 0xD3EB, offset: 0xD3EB, size: 0x8, addend: 0x0, symName: __ZNKSt3__16__treeIiNS_4lessIiEENS_9allocatorIiEEE6__rootB8ue170006Ev, symObjAddr: 0xDAC, symBinAddr: 0x10000436C, symSize: 0x28 }
  - { offsetInCU: 0xD411, offset: 0xD411, size: 0x8, addend: 0x0, symName: __ZNSt3__16__treeIiNS_4lessIiEENS_9allocatorIiEEE12__node_allocB8ue170006Ev, symObjAddr: 0xDD4, symBinAddr: 0x100004394, symSize: 0x28 }
  - { offsetInCU: 0xD437, offset: 0xD437, size: 0x8, addend: 0x0, symName: __ZNSt3__116allocator_traitsINS_9allocatorINS_11__tree_nodeIiPvEEEEE7destroyB8ue170006IivvEEvRS5_PT_, symObjAddr: 0xDFC, symBinAddr: 0x1000043BC, symSize: 0x14 }
  - { offsetInCU: 0xD472, offset: 0xD472, size: 0x8, addend: 0x0, symName: __ZNSt3__122__tree_key_value_typesIiE9__get_ptrB8ue170006ERi, symObjAddr: 0xE10, symBinAddr: 0x1000043D0, symSize: 0x14 }
  - { offsetInCU: 0xD496, offset: 0xD496, size: 0x8, addend: 0x0, symName: __ZNSt3__116allocator_traitsINS_9allocatorINS_11__tree_nodeIiPvEEEEE10deallocateB8ue170006ERS5_PS4_m, symObjAddr: 0xE24, symBinAddr: 0x1000043E4, symSize: 0x34 }
  - { offsetInCU: 0xD4D8, offset: 0xD4D8, size: 0x8, addend: 0x0, symName: __ZNSt3__117__compressed_pairINS_15__tree_end_nodeIPNS_16__tree_node_baseIPvEEEENS_9allocatorINS_11__tree_nodeIiS3_EEEEE6secondB8ue170006Ev, symObjAddr: 0xE58, symBinAddr: 0x100004418, symSize: 0x24 }
  - { offsetInCU: 0xD4FE, offset: 0xD4FE, size: 0x8, addend: 0x0, symName: __ZNSt3__122__compressed_pair_elemINS_9allocatorINS_11__tree_nodeIiPvEEEELi1ELb1EE5__getB8ue170006Ev, symObjAddr: 0xE7C, symBinAddr: 0x10000443C, symSize: 0x14 }
  - { offsetInCU: 0xD524, offset: 0xD524, size: 0x8, addend: 0x0, symName: __ZNSt3__19allocatorINS_11__tree_nodeIiPvEEE10deallocateB8ue170006EPS3_m, symObjAddr: 0xE90, symBinAddr: 0x100004450, symSize: 0x70 }
  - { offsetInCU: 0xD566, offset: 0xD566, size: 0x8, addend: 0x0, symName: __ZNKSt3__16__treeIiNS_4lessIiEENS_9allocatorIiEEE10__end_nodeB8ue170006Ev, symObjAddr: 0xF88, symBinAddr: 0x100004548, symSize: 0x2C }
  - { offsetInCU: 0xD58C, offset: 0xD58C, size: 0x8, addend: 0x0, symName: __ZNKSt3__117__compressed_pairINS_15__tree_end_nodeIPNS_16__tree_node_baseIPvEEEENS_9allocatorINS_11__tree_nodeIiS3_EEEEE5firstB8ue170006Ev, symObjAddr: 0xFB4, symBinAddr: 0x100004574, symSize: 0x24 }
  - { offsetInCU: 0xD5B2, offset: 0xD5B2, size: 0x8, addend: 0x0, symName: __ZNKSt3__122__compressed_pair_elemINS_15__tree_end_nodeIPNS_16__tree_node_baseIPvEEEELi0ELb0EE5__getB8ue170006Ev, symObjAddr: 0xFD8, symBinAddr: 0x100004598, symSize: 0x14 }
  - { offsetInCU: 0xD5D8, offset: 0xD5D8, size: 0x8, addend: 0x0, symName: __ZNSt3__13mapIciNS_4lessIcEENS_9allocatorINS_4pairIKciEEEEEC2B8ue170006Ev, symObjAddr: 0xFEC, symBinAddr: 0x1000045AC, symSize: 0x40 }
  - { offsetInCU: 0xD601, offset: 0xD601, size: 0x8, addend: 0x0, symName: __ZNSt3__119__map_value_compareIcNS_12__value_typeIciEENS_4lessIcEELb1EEC1B8ue170006ES4_, symObjAddr: 0x102C, symBinAddr: 0x1000045EC, symSize: 0x2C }
  - { offsetInCU: 0xD639, offset: 0xD639, size: 0x8, addend: 0x0, symName: __ZNSt3__16__treeINS_12__value_typeIciEENS_19__map_value_compareIcS2_NS_4lessIcEELb1EEENS_9allocatorIS2_EEEC1ERKS6_, symObjAddr: 0x1058, symBinAddr: 0x100004618, symSize: 0x34 }
  - { offsetInCU: 0xD674, offset: 0xD674, size: 0x8, addend: 0x0, symName: __ZNSt3__119__map_value_compareIcNS_12__value_typeIciEENS_4lessIcEELb1EEC2B8ue170006ES4_, symObjAddr: 0x108C, symBinAddr: 0x10000464C, symSize: 0x14 }
  - { offsetInCU: 0xD6AD, offset: 0xD6AD, size: 0x8, addend: 0x0, symName: __ZNSt3__16__treeINS_12__value_typeIciEENS_19__map_value_compareIcS2_NS_4lessIcEELb1EEENS_9allocatorIS2_EEEC2ERKS6_, symObjAddr: 0x10A0, symBinAddr: 0x100004660, symSize: 0x70 }
  - { offsetInCU: 0xD6E8, offset: 0xD6E8, size: 0x8, addend: 0x0, symName: __ZNSt3__117__compressed_pairINS_15__tree_end_nodeIPNS_16__tree_node_baseIPvEEEENS_9allocatorINS_11__tree_nodeINS_12__value_typeIciEES3_EEEEEC1B8ue170006ILb1EvEEv, symObjAddr: 0x1110, symBinAddr: 0x1000046D0, symSize: 0x2C }
  - { offsetInCU: 0xD71C, offset: 0xD71C, size: 0x8, addend: 0x0, symName: __ZNSt3__117__compressed_pairImNS_19__map_value_compareIcNS_12__value_typeIciEENS_4lessIcEELb1EEEEC1B8ue170006IiRKS6_EEOT_OT0_, symObjAddr: 0x113C, symBinAddr: 0x1000046FC, symSize: 0x3C }
  - { offsetInCU: 0xD773, offset: 0xD773, size: 0x8, addend: 0x0, symName: __ZNSt3__16__treeINS_12__value_typeIciEENS_19__map_value_compareIcS2_NS_4lessIcEELb1EEENS_9allocatorIS2_EEE10__end_nodeB8ue170006Ev, symObjAddr: 0x1178, symBinAddr: 0x100004738, symSize: 0x2C }
  - { offsetInCU: 0xD799, offset: 0xD799, size: 0x8, addend: 0x0, symName: __ZNSt3__16__treeINS_12__value_typeIciEENS_19__map_value_compareIcS2_NS_4lessIcEELb1EEENS_9allocatorIS2_EEE12__begin_nodeB8ue170006Ev, symObjAddr: 0x11A4, symBinAddr: 0x100004764, symSize: 0x14 }
  - { offsetInCU: 0xD7BF, offset: 0xD7BF, size: 0x8, addend: 0x0, symName: __ZNSt3__117__compressed_pairINS_15__tree_end_nodeIPNS_16__tree_node_baseIPvEEEENS_9allocatorINS_11__tree_nodeINS_12__value_typeIciEES3_EEEEEC2B8ue170006ILb1EvEEv, symObjAddr: 0x11B8, symBinAddr: 0x100004778, symSize: 0x34 }
  - { offsetInCU: 0xD7F3, offset: 0xD7F3, size: 0x8, addend: 0x0, symName: __ZNSt3__122__compressed_pair_elemINS_9allocatorINS_11__tree_nodeINS_12__value_typeIciEEPvEEEELi1ELb1EEC2B8ue170006ENS_16__value_init_tagE, symObjAddr: 0x11EC, symBinAddr: 0x1000047AC, symSize: 0x2C }
  - { offsetInCU: 0xD827, offset: 0xD827, size: 0x8, addend: 0x0, symName: __ZNSt3__19allocatorINS_11__tree_nodeINS_12__value_typeIciEEPvEEEC2B8ue170006Ev, symObjAddr: 0x1218, symBinAddr: 0x1000047D8, symSize: 0x2C }
  - { offsetInCU: 0xD850, offset: 0xD850, size: 0x8, addend: 0x0, symName: __ZNSt3__116__non_trivial_ifILb1ENS_9allocatorINS_11__tree_nodeINS_12__value_typeIciEEPvEEEEEC2B8ue170006Ev, symObjAddr: 0x1244, symBinAddr: 0x100004804, symSize: 0x14 }
  - { offsetInCU: 0xD87A, offset: 0xD87A, size: 0x8, addend: 0x0, symName: __ZNSt3__117__compressed_pairImNS_19__map_value_compareIcNS_12__value_typeIciEENS_4lessIcEELb1EEEEC2B8ue170006IiRKS6_EEOT_OT0_, symObjAddr: 0x1258, symBinAddr: 0x100004818, symSize: 0x44 }
  - { offsetInCU: 0xD8D1, offset: 0xD8D1, size: 0x8, addend: 0x0, symName: __ZNSt3__122__compressed_pair_elemINS_19__map_value_compareIcNS_12__value_typeIciEENS_4lessIcEELb1EEELi1ELb1EEC2B8ue170006IRKS6_vEEOT_, symObjAddr: 0x129C, symBinAddr: 0x10000485C, symSize: 0x18 }
  - { offsetInCU: 0xD913, offset: 0xD913, size: 0x8, addend: 0x0, symName: __ZNSt3__117__compressed_pairINS_15__tree_end_nodeIPNS_16__tree_node_baseIPvEEEENS_9allocatorINS_11__tree_nodeINS_12__value_typeIciEES3_EEEEE5firstB8ue170006Ev, symObjAddr: 0x12B4, symBinAddr: 0x100004874, symSize: 0x24 }
  - { offsetInCU: 0xD939, offset: 0xD939, size: 0x8, addend: 0x0, symName: __ZNSt3__13mapIciNS_4lessIcEENS_9allocatorINS_4pairIKciEEEEED2B8ue170006Ev, symObjAddr: 0x12D8, symBinAddr: 0x100004898, symSize: 0x2C }
  - { offsetInCU: 0xD962, offset: 0xD962, size: 0x8, addend: 0x0, symName: __ZNSt3__16__treeINS_12__value_typeIciEENS_19__map_value_compareIcS2_NS_4lessIcEELb1EEENS_9allocatorIS2_EEED1Ev, symObjAddr: 0x1304, symBinAddr: 0x1000048C4, symSize: 0x2C }
  - { offsetInCU: 0xD98E, offset: 0xD98E, size: 0x8, addend: 0x0, symName: __ZNSt3__16__treeINS_12__value_typeIciEENS_19__map_value_compareIcS2_NS_4lessIcEELb1EEENS_9allocatorIS2_EEED2Ev, symObjAddr: 0x1330, symBinAddr: 0x1000048F0, symSize: 0x38 }
  - { offsetInCU: 0xD9BA, offset: 0xD9BA, size: 0x8, addend: 0x0, symName: __ZNSt3__16__treeINS_12__value_typeIciEENS_19__map_value_compareIcS2_NS_4lessIcEELb1EEENS_9allocatorIS2_EEE7destroyEPNS_11__tree_nodeIS2_PvEE, symObjAddr: 0x1368, symBinAddr: 0x100004928, symSize: 0xC0 }
  - { offsetInCU: 0xDA0E, offset: 0xDA0E, size: 0x8, addend: 0x0, symName: __ZNKSt3__16__treeINS_12__value_typeIciEENS_19__map_value_compareIcS2_NS_4lessIcEELb1EEENS_9allocatorIS2_EEE6__rootB8ue170006Ev, symObjAddr: 0x1428, symBinAddr: 0x1000049E8, symSize: 0x28 }
  - { offsetInCU: 0xDA34, offset: 0xDA34, size: 0x8, addend: 0x0, symName: __ZNSt3__16__treeINS_12__value_typeIciEENS_19__map_value_compareIcS2_NS_4lessIcEELb1EEENS_9allocatorIS2_EEE12__node_allocB8ue170006Ev, symObjAddr: 0x1450, symBinAddr: 0x100004A10, symSize: 0x28 }
  - { offsetInCU: 0xDA5A, offset: 0xDA5A, size: 0x8, addend: 0x0, symName: __ZNSt3__116allocator_traitsINS_9allocatorINS_11__tree_nodeINS_12__value_typeIciEEPvEEEEE7destroyB8ue170006INS_4pairIKciEEvvEEvRS7_PT_, symObjAddr: 0x1478, symBinAddr: 0x100004A38, symSize: 0x14 }
  - { offsetInCU: 0xDA95, offset: 0xDA95, size: 0x8, addend: 0x0, symName: __ZNSt3__122__tree_key_value_typesINS_12__value_typeIciEEE9__get_ptrB8ue170006ERS2_, symObjAddr: 0x148C, symBinAddr: 0x100004A4C, symSize: 0x24 }
  - { offsetInCU: 0xDAB9, offset: 0xDAB9, size: 0x8, addend: 0x0, symName: __ZNSt3__116allocator_traitsINS_9allocatorINS_11__tree_nodeINS_12__value_typeIciEEPvEEEEE10deallocateB8ue170006ERS7_PS6_m, symObjAddr: 0x14B0, symBinAddr: 0x100004A70, symSize: 0x34 }
  - { offsetInCU: 0xDAFB, offset: 0xDAFB, size: 0x8, addend: 0x0, symName: __ZNSt3__117__compressed_pairINS_15__tree_end_nodeIPNS_16__tree_node_baseIPvEEEENS_9allocatorINS_11__tree_nodeINS_12__value_typeIciEES3_EEEEE6secondB8ue170006Ev, symObjAddr: 0x14E4, symBinAddr: 0x100004AA4, symSize: 0x24 }
  - { offsetInCU: 0xDB21, offset: 0xDB21, size: 0x8, addend: 0x0, symName: __ZNSt3__122__compressed_pair_elemINS_9allocatorINS_11__tree_nodeINS_12__value_typeIciEEPvEEEELi1ELb1EE5__getB8ue170006Ev, symObjAddr: 0x1508, symBinAddr: 0x100004AC8, symSize: 0x14 }
  - { offsetInCU: 0xDB47, offset: 0xDB47, size: 0x8, addend: 0x0, symName: __ZNSt3__112__value_typeIciE11__get_valueB8ue170006Ev, symObjAddr: 0x151C, symBinAddr: 0x100004ADC, symSize: 0x14 }
  - { offsetInCU: 0xDB6D, offset: 0xDB6D, size: 0x8, addend: 0x0, symName: __ZNSt3__19allocatorINS_11__tree_nodeINS_12__value_typeIciEEPvEEE10deallocateB8ue170006EPS5_m, symObjAddr: 0x1530, symBinAddr: 0x100004AF0, symSize: 0x74 }
  - { offsetInCU: 0xDBAF, offset: 0xDBAF, size: 0x8, addend: 0x0, symName: __ZNKSt3__16__treeINS_12__value_typeIciEENS_19__map_value_compareIcS2_NS_4lessIcEELb1EEENS_9allocatorIS2_EEE10__end_nodeB8ue170006Ev, symObjAddr: 0x15A4, symBinAddr: 0x100004B64, symSize: 0x2C }
  - { offsetInCU: 0xDBD5, offset: 0xDBD5, size: 0x8, addend: 0x0, symName: __ZNKSt3__117__compressed_pairINS_15__tree_end_nodeIPNS_16__tree_node_baseIPvEEEENS_9allocatorINS_11__tree_nodeINS_12__value_typeIciEES3_EEEEE5firstB8ue170006Ev, symObjAddr: 0x15D0, symBinAddr: 0x100004B90, symSize: 0x24 }
  - { offsetInCU: 0xDBFB, offset: 0xDBFB, size: 0x8, addend: 0x0, symName: __ZNSt3__112basic_stringIcNS_11char_traitsIcEENS_9allocatorIcEEEC2B8ue170006Ev, symObjAddr: 0x15F4, symBinAddr: 0x100004BB4, symSize: 0x3C }
  - { offsetInCU: 0xDC29, offset: 0xDC29, size: 0x8, addend: 0x0, symName: __ZNSt3__117__compressed_pairINS_12basic_stringIcNS_11char_traitsIcEENS_9allocatorIcEEE5__repES5_EC1B8ue170006INS_18__default_init_tagESA_EEOT_OT0_, symObjAddr: 0x1630, symBinAddr: 0x100004BF0, symSize: 0x3C }
  - { offsetInCU: 0xDC80, offset: 0xDC80, size: 0x8, addend: 0x0, symName: __ZNSt3__112basic_stringIcNS_11char_traitsIcEENS_9allocatorIcEEE14__default_initB8ue170006Ev, symObjAddr: 0x166C, symBinAddr: 0x100004C2C, symSize: 0xB0 }
  - { offsetInCU: 0xDCD2, offset: 0xDCD2, size: 0x8, addend: 0x0, symName: __ZNSt3__117__compressed_pairINS_12basic_stringIcNS_11char_traitsIcEENS_9allocatorIcEEE5__repES5_EC2B8ue170006INS_18__default_init_tagESA_EEOT_OT0_, symObjAddr: 0x171C, symBinAddr: 0x100004CDC, symSize: 0x3C }
  - { offsetInCU: 0xDD29, offset: 0xDD29, size: 0x8, addend: 0x0, symName: __ZNSt3__122__compressed_pair_elemINS_12basic_stringIcNS_11char_traitsIcEENS_9allocatorIcEEE5__repELi0ELb0EEC2B8ue170006ENS_18__default_init_tagE, symObjAddr: 0x1758, symBinAddr: 0x100004D18, symSize: 0x14 }
  - { offsetInCU: 0xDD5E, offset: 0xDD5E, size: 0x8, addend: 0x0, symName: __ZNSt3__122__compressed_pair_elemINS_9allocatorIcEELi1ELb1EEC2B8ue170006ENS_18__default_init_tagE, symObjAddr: 0x176C, symBinAddr: 0x100004D2C, symSize: 0x2C }
  - { offsetInCU: 0xDD92, offset: 0xDD92, size: 0x8, addend: 0x0, symName: __ZNSt3__19allocatorIcEC2B8ue170006Ev, symObjAddr: 0x1798, symBinAddr: 0x100004D58, symSize: 0x2C }
  - { offsetInCU: 0xDDBB, offset: 0xDDBB, size: 0x8, addend: 0x0, symName: __ZNSt3__116__non_trivial_ifILb1ENS_9allocatorIcEEEC2B8ue170006Ev, symObjAddr: 0x17C4, symBinAddr: 0x100004D84, symSize: 0x14 }
  - { offsetInCU: 0xDDE5, offset: 0xDDE5, size: 0x8, addend: 0x0, symName: __ZNSt3__117__compressed_pairINS_12basic_stringIcNS_11char_traitsIcEENS_9allocatorIcEEE5__repES5_E5firstB8ue170006Ev, symObjAddr: 0x17D8, symBinAddr: 0x100004D98, symSize: 0x24 }
  - { offsetInCU: 0xDE0B, offset: 0xDE0B, size: 0x8, addend: 0x0, symName: __ZNSt3__112basic_stringIcNS_11char_traitsIcEENS_9allocatorIcEEE11__recommendB8ue170006Em, symObjAddr: 0x17FC, symBinAddr: 0x100004DBC, symSize: 0x9C }
  - { offsetInCU: 0xDE3E, offset: 0xDE3E, size: 0x8, addend: 0x0, symName: __ZNSt3__116allocator_traitsINS_9allocatorIcEEE8allocateB8ue170006ERS2_m, symObjAddr: 0x1898, symBinAddr: 0x100004E58, symSize: 0x2C }
  - { offsetInCU: 0xDE71, offset: 0xDE71, size: 0x8, addend: 0x0, symName: __ZNSt3__112basic_stringIcNS_11char_traitsIcEENS_9allocatorIcEEE7__allocB8ue170006Ev, symObjAddr: 0x18C4, symBinAddr: 0x100004E84, symSize: 0x24 }
  - { offsetInCU: 0xDE97, offset: 0xDE97, size: 0x8, addend: 0x0, symName: __ZNSt3__112basic_stringIcNS_11char_traitsIcEENS_9allocatorIcEEE16__begin_lifetimeB8ue170006EPcm, symObjAddr: 0x18E8, symBinAddr: 0x100004EA8, symSize: 0x14 }
  - { offsetInCU: 0xDECA, offset: 0xDECA, size: 0x8, addend: 0x0, symName: __ZNSt3__112basic_stringIcNS_11char_traitsIcEENS_9allocatorIcEEE18__set_long_pointerB8ue170006EPc, symObjAddr: 0x18FC, symBinAddr: 0x100004EBC, symSize: 0x38 }
  - { offsetInCU: 0xDEFF, offset: 0xDEFF, size: 0x8, addend: 0x0, symName: __ZNSt3__112basic_stringIcNS_11char_traitsIcEENS_9allocatorIcEEE14__set_long_capB8ue170006Em, symObjAddr: 0x1934, symBinAddr: 0x100004EF4, symSize: 0x70 }
  - { offsetInCU: 0xDF34, offset: 0xDF34, size: 0x8, addend: 0x0, symName: __ZNSt3__112basic_stringIcNS_11char_traitsIcEENS_9allocatorIcEEE15__set_long_sizeB8ue170006Em, symObjAddr: 0x19A4, symBinAddr: 0x100004F64, symSize: 0x38 }
  - { offsetInCU: 0xDF69, offset: 0xDF69, size: 0x8, addend: 0x0, symName: __ZNSt3__122__compressed_pair_elemINS_12basic_stringIcNS_11char_traitsIcEENS_9allocatorIcEEE5__repELi0ELb0EE5__getB8ue170006Ev, symObjAddr: 0x19DC, symBinAddr: 0x100004F9C, symSize: 0x14 }
  - { offsetInCU: 0xDF8F, offset: 0xDF8F, size: 0x8, addend: 0x0, symName: __ZNSt3__112basic_stringIcNS_11char_traitsIcEENS_9allocatorIcEEE10__align_itB8ue170006ILm16EEEmm, symObjAddr: 0x19F0, symBinAddr: 0x100004FB0, symSize: 0x1C }
  - { offsetInCU: 0xDFBD, offset: 0xDFBD, size: 0x8, addend: 0x0, symName: __ZNSt3__19allocatorIcE8allocateB8ue170006Em, symObjAddr: 0x1A0C, symBinAddr: 0x100004FCC, symSize: 0x84 }
  - { offsetInCU: 0xDFFB, offset: 0xDFFB, size: 0x8, addend: 0x0, symName: __ZNSt3__116allocator_traitsINS_9allocatorIcEEE8max_sizeB8ue170006IS2_vEEmRKS2_, symObjAddr: 0x1A90, symBinAddr: 0x100005050, symSize: 0x24 }
  - { offsetInCU: 0xE029, offset: 0xE029, size: 0x8, addend: 0x0, symName: __ZNKSt3__19allocatorIcE8max_sizeB8ue170006Ev, symObjAddr: 0x1B10, symBinAddr: 0x1000050D0, symSize: 0x14 }
  - { offsetInCU: 0xE04F, offset: 0xE04F, size: 0x8, addend: 0x0, symName: __ZNSt3__117__compressed_pairINS_12basic_stringIcNS_11char_traitsIcEENS_9allocatorIcEEE5__repES5_E6secondB8ue170006Ev, symObjAddr: 0x1B48, symBinAddr: 0x100005108, symSize: 0x24 }
  - { offsetInCU: 0xE075, offset: 0xE075, size: 0x8, addend: 0x0, symName: __ZNSt3__122__compressed_pair_elemINS_9allocatorIcEELi1ELb1EE5__getB8ue170006Ev, symObjAddr: 0x1B6C, symBinAddr: 0x10000512C, symSize: 0x14 }
  - { offsetInCU: 0xE1AE, offset: 0xE1AE, size: 0x8, addend: 0x0, symName: __ZNKSt3__113basic_istreamIcNS_11char_traitsIcEEE6sentrycvbB8ue170006Ev, symObjAddr: 0x1B80, symBinAddr: 0x100005140, symSize: 0x1C }
  - { offsetInCU: 0xE1D4, offset: 0xE1D4, size: 0x8, addend: 0x0, symName: __ZNSt3__112basic_stringIcNS_11char_traitsIcEENS_9allocatorIcEEE5clearB8ue170006Ev, symObjAddr: 0x1B9C, symBinAddr: 0x10000515C, symSize: 0x78 }
  - { offsetInCU: 0xE1FC, offset: 0xE1FC, size: 0x8, addend: 0x0, symName: __ZNKSt3__18ios_base5widthB8ue170006Ev, symObjAddr: 0x1C14, symBinAddr: 0x1000051D4, symSize: 0x18 }
  - { offsetInCU: 0xE224, offset: 0xE224, size: 0x8, addend: 0x0, symName: __ZNKSt3__112basic_stringIcNS_11char_traitsIcEENS_9allocatorIcEEE8max_sizeB8ue170006Ev, symObjAddr: 0x1C2C, symBinAddr: 0x1000051EC, symSize: 0xAC }
  - { offsetInCU: 0xE276, offset: 0xE276, size: 0x8, addend: 0x0, symName: __ZNSt3__114numeric_limitsIlE3maxB8ue170006Ev, symObjAddr: 0x1CD8, symBinAddr: 0x100005298, symSize: 0x14 }
  - { offsetInCU: 0xE28A, offset: 0xE28A, size: 0x8, addend: 0x0, symName: __ZNKSt3__19basic_iosIcNS_11char_traitsIcEEE5rdbufB8ue170006Ev, symObjAddr: 0x1D18, symBinAddr: 0x1000052D8, symSize: 0x24 }
  - { offsetInCU: 0xE2B2, offset: 0xE2B2, size: 0x8, addend: 0x0, symName: __ZNSt3__115basic_streambufIcNS_11char_traitsIcEEE5sgetcB8ue170006Ev, symObjAddr: 0x1D3C, symBinAddr: 0x1000052FC, symSize: 0x70 }
  - { offsetInCU: 0xE2D8, offset: 0xE2D8, size: 0x8, addend: 0x0, symName: __ZNSt3__111char_traitsIcE11eq_int_typeB8ue170006Eii, symObjAddr: 0x1DAC, symBinAddr: 0x10000536C, symSize: 0x28 }
  - { offsetInCU: 0xE30B, offset: 0xE30B, size: 0x8, addend: 0x0, symName: __ZNSt3__111char_traitsIcE3eofB8ue170006Ev, symObjAddr: 0x1DD4, symBinAddr: 0x100005394, symSize: 0x8 }
  - { offsetInCU: 0xE31F, offset: 0xE31F, size: 0x8, addend: 0x0, symName: __ZNSt3__111char_traitsIcE12to_char_typeB8ue170006Ei, symObjAddr: 0x1DDC, symBinAddr: 0x10000539C, symSize: 0x18 }
  - { offsetInCU: 0xE36F, offset: 0xE36F, size: 0x8, addend: 0x0, symName: __ZNKSt3__15ctypeIcE2isB8ue170006Ejc, symObjAddr: 0x1DF4, symBinAddr: 0x1000053B4, symSize: 0x7C }
  - { offsetInCU: 0xE3B3, offset: 0xE3B3, size: 0x8, addend: 0x0, symName: __ZNSt3__115basic_streambufIcNS_11char_traitsIcEEE6sbumpcB8ue170006Ev, symObjAddr: 0x1E70, symBinAddr: 0x100005430, symSize: 0x78 }
  - { offsetInCU: 0xE3D9, offset: 0xE3D9, size: 0x8, addend: 0x0, symName: __ZNSt3__18ios_base5widthB8ue170006El, symObjAddr: 0x1EE8, symBinAddr: 0x1000054A8, symSize: 0x2C }
  - { offsetInCU: 0xE41F, offset: 0xE41F, size: 0x8, addend: 0x0, symName: __ZNSt3__18ios_base18__setstate_nothrowB8ue170006Ej, symObjAddr: 0x1F14, symBinAddr: 0x1000054D4, symSize: 0x64 }
  - { offsetInCU: 0xE454, offset: 0xE454, size: 0x8, addend: 0x0, symName: __ZNKSt3__19basic_iosIcNS_11char_traitsIcEEE10exceptionsB8ue170006Ev, symObjAddr: 0x1F78, symBinAddr: 0x100005538, symSize: 0x24 }
  - { offsetInCU: 0xE47A, offset: 0xE47A, size: 0x8, addend: 0x0, symName: __ZNSt3__19basic_iosIcNS_11char_traitsIcEEE8setstateB8ue170006Ej, symObjAddr: 0x1F9C, symBinAddr: 0x10000555C, symSize: 0x2C }
  - { offsetInCU: 0xE4AF, offset: 0xE4AF, size: 0x8, addend: 0x0, symName: __ZNKSt3__112basic_stringIcNS_11char_traitsIcEENS_9allocatorIcEEE9__is_longB8ue170006Ev, symObjAddr: 0x1FC8, symBinAddr: 0x100005588, symSize: 0x74 }
  - { offsetInCU: 0xE4D5, offset: 0xE4D5, size: 0x8, addend: 0x0, symName: __ZNSt3__111char_traitsIcE6assignB8ue170006ERcRKc, symObjAddr: 0x203C, symBinAddr: 0x1000055FC, symSize: 0x24 }
  - { offsetInCU: 0xE506, offset: 0xE506, size: 0x8, addend: 0x0, symName: __ZNSt3__112basic_stringIcNS_11char_traitsIcEENS_9allocatorIcEEE18__get_long_pointerB8ue170006Ev, symObjAddr: 0x2060, symBinAddr: 0x100005620, symSize: 0x28 }
  - { offsetInCU: 0xE52C, offset: 0xE52C, size: 0x8, addend: 0x0, symName: __ZNSt3__112basic_stringIcNS_11char_traitsIcEENS_9allocatorIcEEE19__get_short_pointerB8ue170006Ev, symObjAddr: 0x2088, symBinAddr: 0x100005648, symSize: 0x28 }
  - { offsetInCU: 0xE552, offset: 0xE552, size: 0x8, addend: 0x0, symName: __ZNSt3__112basic_stringIcNS_11char_traitsIcEENS_9allocatorIcEEE16__set_short_sizeB8ue170006Em, symObjAddr: 0x20B0, symBinAddr: 0x100005670, symSize: 0x78 }
  - { offsetInCU: 0xE587, offset: 0xE587, size: 0x8, addend: 0x0, symName: __ZNKSt3__117__compressed_pairINS_12basic_stringIcNS_11char_traitsIcEENS_9allocatorIcEEE5__repES5_E5firstB8ue170006Ev, symObjAddr: 0x2128, symBinAddr: 0x1000056E8, symSize: 0x24 }
  - { offsetInCU: 0xE5AD, offset: 0xE5AD, size: 0x8, addend: 0x0, symName: __ZNKSt3__122__compressed_pair_elemINS_12basic_stringIcNS_11char_traitsIcEENS_9allocatorIcEEE5__repELi0ELb0EE5__getB8ue170006Ev, symObjAddr: 0x214C, symBinAddr: 0x10000570C, symSize: 0x14 }
  - { offsetInCU: 0xE5D3, offset: 0xE5D3, size: 0x8, addend: 0x0, symName: __ZNSt3__114pointer_traitsIPcE10pointer_toB8ue170006ERc, symObjAddr: 0x2160, symBinAddr: 0x100005720, symSize: 0x14 }
  - { offsetInCU: 0xE5F6, offset: 0xE5F6, size: 0x8, addend: 0x0, symName: __ZNKSt3__112basic_stringIcNS_11char_traitsIcEENS_9allocatorIcEEE7__allocB8ue170006Ev, symObjAddr: 0x2174, symBinAddr: 0x100005734, symSize: 0x24 }
  - { offsetInCU: 0xE61C, offset: 0xE61C, size: 0x8, addend: 0x0, symName: __ZNSt3__114numeric_limitsImE3maxB8ue170006Ev, symObjAddr: 0x2198, symBinAddr: 0x100005758, symSize: 0x14 }
  - { offsetInCU: 0xE630, offset: 0xE630, size: 0x8, addend: 0x0, symName: __ZNKSt3__117__compressed_pairINS_12basic_stringIcNS_11char_traitsIcEENS_9allocatorIcEEE5__repES5_E6secondB8ue170006Ev, symObjAddr: 0x21AC, symBinAddr: 0x10000576C, symSize: 0x24 }
  - { offsetInCU: 0xE656, offset: 0xE656, size: 0x8, addend: 0x0, symName: __ZNKSt3__122__compressed_pair_elemINS_9allocatorIcEELi1ELb1EE5__getB8ue170006Ev, symObjAddr: 0x21D0, symBinAddr: 0x100005790, symSize: 0x14 }
  - { offsetInCU: 0xE67C, offset: 0xE67C, size: 0x8, addend: 0x0, symName: __ZNSt3__123__libcpp_numeric_limitsImLb1EE3maxB8ue170006Ev, symObjAddr: 0x21E4, symBinAddr: 0x1000057A4, symSize: 0x8 }
  - { offsetInCU: 0xE690, offset: 0xE690, size: 0x8, addend: 0x0, symName: __ZNSt3__123__libcpp_numeric_limitsIlLb1EE3maxB8ue170006Ev, symObjAddr: 0x21EC, symBinAddr: 0x1000057AC, symSize: 0x8 }
  - { offsetInCU: 0xE6A4, offset: 0xE6A4, size: 0x8, addend: 0x0, symName: __ZNKSt3__18ios_base5rdbufB8ue170006Ev, symObjAddr: 0x21F4, symBinAddr: 0x1000057B4, symSize: 0x18 }
  - { offsetInCU: 0xE6CA, offset: 0xE6CA, size: 0x8, addend: 0x0, symName: __ZNSt3__111char_traitsIcE11to_int_typeB8ue170006Ec, symObjAddr: 0x220C, symBinAddr: 0x1000057CC, symSize: 0x14 }
  - { offsetInCU: 0xE6ED, offset: 0xE6ED, size: 0x8, addend: 0x0, symName: __Z7isasciii, symObjAddr: 0x2220, symBinAddr: 0x1000057E0, symSize: 0x24 }
  - { offsetInCU: 0xE71A, offset: 0xE71A, size: 0x8, addend: 0x0, symName: __ZNKSt3__18ios_base10exceptionsB8ue170006Ev, symObjAddr: 0x2244, symBinAddr: 0x100005804, symSize: 0x18 }
  - { offsetInCU: 0xE742, offset: 0xE742, size: 0x8, addend: 0x0, symName: __ZNSt3__18ios_base8setstateB8ue170006Ej, symObjAddr: 0x225C, symBinAddr: 0x10000581C, symSize: 0x34 }
  - { offsetInCU: 0xE779, offset: 0xE779, size: 0x8, addend: 0x0, symName: __ZNSt3__112basic_stringIcNS_11char_traitsIcEENS_9allocatorIcEEE15__make_iteratorB8ue170006EPc, symObjAddr: 0x2290, symBinAddr: 0x100005850, symSize: 0x30 }
  - { offsetInCU: 0xE7AE, offset: 0xE7AE, size: 0x8, addend: 0x0, symName: __ZNSt3__112basic_stringIcNS_11char_traitsIcEENS_9allocatorIcEEE13__get_pointerB8ue170006Ev, symObjAddr: 0x22C0, symBinAddr: 0x100005880, symSize: 0x54 }
  - { offsetInCU: 0xE7D4, offset: 0xE7D4, size: 0x8, addend: 0x0, symName: __ZNSt3__111__wrap_iterIPcEC1B8ue170006ES1_, symObjAddr: 0x2314, symBinAddr: 0x1000058D4, symSize: 0x34 }
  - { offsetInCU: 0xE80B, offset: 0xE80B, size: 0x8, addend: 0x0, symName: __ZNSt3__111__wrap_iterIPcEC2B8ue170006ES1_, symObjAddr: 0x2348, symBinAddr: 0x100005908, symSize: 0x20 }
  - { offsetInCU: 0xE843, offset: 0xE843, size: 0x8, addend: 0x0, symName: __ZNKSt3__112basic_stringIcNS_11char_traitsIcEENS_9allocatorIcEEE4sizeB8ue170006Ev, symObjAddr: 0x2368, symBinAddr: 0x100005928, symSize: 0x54 }
  - { offsetInCU: 0xE869, offset: 0xE869, size: 0x8, addend: 0x0, symName: __ZNKSt3__112basic_stringIcNS_11char_traitsIcEENS_9allocatorIcEEE15__get_long_sizeB8ue170006Ev, symObjAddr: 0x23BC, symBinAddr: 0x10000597C, symSize: 0x28 }
  - { offsetInCU: 0xE88F, offset: 0xE88F, size: 0x8, addend: 0x0, symName: __ZNKSt3__112basic_stringIcNS_11char_traitsIcEENS_9allocatorIcEEE16__get_short_sizeB8ue170006Ev, symObjAddr: 0x23E4, symBinAddr: 0x1000059A4, symSize: 0x34 }
  - { offsetInCU: 0xE8B5, offset: 0xE8B5, size: 0x8, addend: 0x0, symName: __ZNKSt3__111__wrap_iterIPcE4baseB8ue170006Ev, symObjAddr: 0x2460, symBinAddr: 0x100005A20, symSize: 0x18 }
  - { offsetInCU: 0xE8DB, offset: 0xE8DB, size: 0x8, addend: 0x0, symName: __ZNSt3__16__treeINS_12__value_typeIciEENS_19__map_value_compareIcS2_NS_4lessIcEELb1EEENS_9allocatorIS2_EEE12__find_equalIcEERPNS_16__tree_node_baseIPvEERPNS_15__tree_end_nodeISE_EERKT_, symObjAddr: 0x2478, symBinAddr: 0x100005A38, symSize: 0x184 }
  - { offsetInCU: 0xE948, offset: 0xE948, size: 0x8, addend: 0x0, symName: __ZNSt3__13mapIciNS_4lessIcEENS_9allocatorINS_4pairIKciEEEEE25__construct_node_with_keyERS5_, symObjAddr: 0x25FC, symBinAddr: 0x100005BBC, symSize: 0x144 }
  - { offsetInCU: 0xE99E, offset: 0xE99E, size: 0x8, addend: 0x0, symName: __ZNSt3__16__treeINS_12__value_typeIciEENS_19__map_value_compareIcS2_NS_4lessIcEELb1EEENS_9allocatorIS2_EEE16__insert_node_atEPNS_15__tree_end_nodeIPNS_16__tree_node_baseIPvEEEERSE_SE_, symObjAddr: 0x2740, symBinAddr: 0x100005D00, symSize: 0xCC }
  - { offsetInCU: 0xE9F3, offset: 0xE9F3, size: 0x8, addend: 0x0, symName: __ZNKSt3__110unique_ptrINS_11__tree_nodeINS_12__value_typeIciEEPvEENS_21__map_node_destructorINS_9allocatorIS5_EEEEE3getB8ue170006Ev, symObjAddr: 0x280C, symBinAddr: 0x100005DCC, symSize: 0x28 }
  - { offsetInCU: 0xEA19, offset: 0xEA19, size: 0x8, addend: 0x0, symName: __ZNSt3__110unique_ptrINS_11__tree_nodeINS_12__value_typeIciEEPvEENS_21__map_node_destructorINS_9allocatorIS5_EEEEE7releaseB8ue170006Ev, symObjAddr: 0x2834, symBinAddr: 0x100005DF4, symSize: 0x44 }
  - { offsetInCU: 0xEA4E, offset: 0xEA4E, size: 0x8, addend: 0x0, symName: __ZNSt3__110unique_ptrINS_11__tree_nodeINS_12__value_typeIciEEPvEENS_21__map_node_destructorINS_9allocatorIS5_EEEEED1B8ue170006Ev, symObjAddr: 0x2878, symBinAddr: 0x100005E38, symSize: 0x2C }
  - { offsetInCU: 0xEA77, offset: 0xEA77, size: 0x8, addend: 0x0, symName: __ZNKSt3__16__treeINS_12__value_typeIciEENS_19__map_value_compareIcS2_NS_4lessIcEELb1EEENS_9allocatorIS2_EEE10__root_ptrB8ue170006Ev, symObjAddr: 0x28A4, symBinAddr: 0x100005E64, symSize: 0x24 }
  - { offsetInCU: 0xEA9D, offset: 0xEA9D, size: 0x8, addend: 0x0, symName: __ZNSt3__16__treeINS_12__value_typeIciEENS_19__map_value_compareIcS2_NS_4lessIcEELb1EEENS_9allocatorIS2_EEE10value_compB8ue170006Ev, symObjAddr: 0x28C8, symBinAddr: 0x100005E88, symSize: 0x28 }
  - { offsetInCU: 0xEAC3, offset: 0xEAC3, size: 0x8, addend: 0x0, symName: __ZNKSt3__119__map_value_compareIcNS_12__value_typeIciEENS_4lessIcEELb1EEclB8ue170006ERKcRKS2_, symObjAddr: 0x28F0, symBinAddr: 0x100005EB0, symSize: 0x50 }
  - { offsetInCU: 0xEB07, offset: 0xEB07, size: 0x8, addend: 0x0, symName: __ZNKSt3__119__map_value_compareIcNS_12__value_typeIciEENS_4lessIcEELb1EEclB8ue170006ERKS2_RKc, symObjAddr: 0x2940, symBinAddr: 0x100005F00, symSize: 0x48 }
  - { offsetInCU: 0xEB4B, offset: 0xEB4B, size: 0x8, addend: 0x0, symName: __ZNSt3__117__compressed_pairImNS_19__map_value_compareIcNS_12__value_typeIciEENS_4lessIcEELb1EEEE6secondB8ue170006Ev, symObjAddr: 0x2988, symBinAddr: 0x100005F48, symSize: 0x24 }
  - { offsetInCU: 0xEB71, offset: 0xEB71, size: 0x8, addend: 0x0, symName: __ZNSt3__122__compressed_pair_elemINS_19__map_value_compareIcNS_12__value_typeIciEENS_4lessIcEELb1EEELi1ELb1EE5__getB8ue170006Ev, symObjAddr: 0x29AC, symBinAddr: 0x100005F6C, symSize: 0x14 }
  - { offsetInCU: 0xEB97, offset: 0xEB97, size: 0x8, addend: 0x0, symName: __ZNKSt3__14lessIcEclB8ue170006ERKcS3_, symObjAddr: 0x29C0, symBinAddr: 0x100005F80, symSize: 0x34 }
  - { offsetInCU: 0xEBDB, offset: 0xEBDB, size: 0x8, addend: 0x0, symName: __ZNKSt3__112__value_typeIciE11__get_valueB8ue170006Ev, symObjAddr: 0x29F4, symBinAddr: 0x100005FB4, symSize: 0x14 }
  - { offsetInCU: 0xEC01, offset: 0xEC01, size: 0x8, addend: 0x0, symName: __ZNSt3__116allocator_traitsINS_9allocatorINS_11__tree_nodeINS_12__value_typeIciEEPvEEEEE8allocateB8ue170006ERS7_m, symObjAddr: 0x2A08, symBinAddr: 0x100005FC8, symSize: 0x2C }
  - { offsetInCU: 0xEC34, offset: 0xEC34, size: 0x8, addend: 0x0, symName: __ZNSt3__121__map_node_destructorINS_9allocatorINS_11__tree_nodeINS_12__value_typeIciEEPvEEEEEC1B8ue170006ERS7_, symObjAddr: 0x2A34, symBinAddr: 0x100005FF4, symSize: 0x34 }
  - { offsetInCU: 0xEC71, offset: 0xEC71, size: 0x8, addend: 0x0, symName: __ZNSt3__110unique_ptrINS_11__tree_nodeINS_12__value_typeIciEEPvEENS_21__map_node_destructorINS_9allocatorIS5_EEEEEC1B8ue170006ILb1EvEEPS5_NS_16__dependent_typeINS_27__unique_ptr_deleter_sfinaeIS9_EEXT_EE20__good_rval_ref_typeE, symObjAddr: 0x2A68, symBinAddr: 0x100006028, symSize: 0x3C }
  - { offsetInCU: 0xECC1, offset: 0xECC1, size: 0x8, addend: 0x0, symName: __ZNSt3__116allocator_traitsINS_9allocatorINS_11__tree_nodeINS_12__value_typeIciEEPvEEEEE9constructB8ue170006IKcJRSA_EvEEvRS7_PT_DpOT0_, symObjAddr: 0x2AA4, symBinAddr: 0x100006064, symSize: 0x34 }
  - { offsetInCU: 0xED18, offset: 0xED18, size: 0x8, addend: 0x0, symName: __ZNKSt3__110unique_ptrINS_11__tree_nodeINS_12__value_typeIciEEPvEENS_21__map_node_destructorINS_9allocatorIS5_EEEEEptB8ue170006Ev, symObjAddr: 0x2AD8, symBinAddr: 0x100006098, symSize: 0x28 }
  - { offsetInCU: 0xED3E, offset: 0xED3E, size: 0x8, addend: 0x0, symName: __ZNSt3__110unique_ptrINS_11__tree_nodeINS_12__value_typeIciEEPvEENS_21__map_node_destructorINS_9allocatorIS5_EEEEE11get_deleterB8ue170006Ev, symObjAddr: 0x2B00, symBinAddr: 0x1000060C0, symSize: 0x24 }
  - { offsetInCU: 0xED64, offset: 0xED64, size: 0x8, addend: 0x0, symName: __ZNSt3__116allocator_traitsINS_9allocatorINS_11__tree_nodeINS_12__value_typeIciEEPvEEEEE9constructB8ue170006IiJEvEEvRS7_PT_DpOT0_, symObjAddr: 0x2B24, symBinAddr: 0x1000060E4, symSize: 0x2C }
  - { offsetInCU: 0xEDA6, offset: 0xEDA6, size: 0x8, addend: 0x0, symName: __ZNSt3__19allocatorINS_11__tree_nodeINS_12__value_typeIciEEPvEEE8allocateB8ue170006Em, symObjAddr: 0x2B50, symBinAddr: 0x100006110, symSize: 0x8C }
  - { offsetInCU: 0xEDE4, offset: 0xEDE4, size: 0x8, addend: 0x0, symName: __ZNSt3__116allocator_traitsINS_9allocatorINS_11__tree_nodeINS_12__value_typeIciEEPvEEEEE8max_sizeB8ue170006IS7_vEEmRKS7_, symObjAddr: 0x2BDC, symBinAddr: 0x10000619C, symSize: 0x24 }
  - { offsetInCU: 0xEE12, offset: 0xEE12, size: 0x8, addend: 0x0, symName: __ZNKSt3__19allocatorINS_11__tree_nodeINS_12__value_typeIciEEPvEEE8max_sizeB8ue170006Ev, symObjAddr: 0x2C00, symBinAddr: 0x1000061C0, symSize: 0x18 }
  - { offsetInCU: 0xEE38, offset: 0xEE38, size: 0x8, addend: 0x0, symName: __ZNSt3__121__map_node_destructorINS_9allocatorINS_11__tree_nodeINS_12__value_typeIciEEPvEEEEEC2B8ue170006ERS7_, symObjAddr: 0x2C18, symBinAddr: 0x1000061D8, symSize: 0x28 }
  - { offsetInCU: 0xEE71, offset: 0xEE71, size: 0x8, addend: 0x0, symName: __ZNSt3__110unique_ptrINS_11__tree_nodeINS_12__value_typeIciEEPvEENS_21__map_node_destructorINS_9allocatorIS5_EEEEEC2B8ue170006ILb1EvEEPS5_NS_16__dependent_typeINS_27__unique_ptr_deleter_sfinaeIS9_EEXT_EE20__good_rval_ref_typeE, symObjAddr: 0x2C40, symBinAddr: 0x100006200, symSize: 0x5C }
  - { offsetInCU: 0xEEC1, offset: 0xEEC1, size: 0x8, addend: 0x0, symName: __ZNSt3__117__compressed_pairIPNS_11__tree_nodeINS_12__value_typeIciEEPvEENS_21__map_node_destructorINS_9allocatorIS5_EEEEEC1B8ue170006IRS6_SA_EEOT_OT0_, symObjAddr: 0x2C9C, symBinAddr: 0x10000625C, symSize: 0x3C }
  - { offsetInCU: 0xEF18, offset: 0xEF18, size: 0x8, addend: 0x0, symName: __ZNSt3__117__compressed_pairIPNS_11__tree_nodeINS_12__value_typeIciEEPvEENS_21__map_node_destructorINS_9allocatorIS5_EEEEEC2B8ue170006IRS6_SA_EEOT_OT0_, symObjAddr: 0x2CD8, symBinAddr: 0x100006298, symSize: 0x48 }
  - { offsetInCU: 0xEF6F, offset: 0xEF6F, size: 0x8, addend: 0x0, symName: __ZNSt3__122__compressed_pair_elemIPNS_11__tree_nodeINS_12__value_typeIciEEPvEELi0ELb0EEC2B8ue170006IRS6_vEEOT_, symObjAddr: 0x2D20, symBinAddr: 0x1000062E0, symSize: 0x24 }
  - { offsetInCU: 0xEFB1, offset: 0xEFB1, size: 0x8, addend: 0x0, symName: __ZNSt3__122__compressed_pair_elemINS_21__map_node_destructorINS_9allocatorINS_11__tree_nodeINS_12__value_typeIciEEPvEEEEEELi1ELb0EEC2B8ue170006IS9_vEEOT_, symObjAddr: 0x2D44, symBinAddr: 0x100006304, symSize: 0x24 }
  - { offsetInCU: 0xEFF3, offset: 0xEFF3, size: 0x8, addend: 0x0, symName: __ZNSt3__19allocatorINS_11__tree_nodeINS_12__value_typeIciEEPvEEE9constructB8ue170006IKcJRS8_EEEvPT_DpOT0_, symObjAddr: 0x2D68, symBinAddr: 0x100006328, symSize: 0x28 }
  - { offsetInCU: 0xF049, offset: 0xF049, size: 0x8, addend: 0x0, symName: __ZNKSt3__117__compressed_pairIPNS_11__tree_nodeINS_12__value_typeIciEEPvEENS_21__map_node_destructorINS_9allocatorIS5_EEEEE5firstB8ue170006Ev, symObjAddr: 0x2D90, symBinAddr: 0x100006350, symSize: 0x24 }
  - { offsetInCU: 0xF06F, offset: 0xF06F, size: 0x8, addend: 0x0, symName: __ZNKSt3__122__compressed_pair_elemIPNS_11__tree_nodeINS_12__value_typeIciEEPvEELi0ELb0EE5__getB8ue170006Ev, symObjAddr: 0x2DB4, symBinAddr: 0x100006374, symSize: 0x14 }
  - { offsetInCU: 0xF095, offset: 0xF095, size: 0x8, addend: 0x0, symName: __ZNSt3__117__compressed_pairIPNS_11__tree_nodeINS_12__value_typeIciEEPvEENS_21__map_node_destructorINS_9allocatorIS5_EEEEE6secondB8ue170006Ev, symObjAddr: 0x2DC8, symBinAddr: 0x100006388, symSize: 0x28 }
  - { offsetInCU: 0xF0BB, offset: 0xF0BB, size: 0x8, addend: 0x0, symName: __ZNSt3__122__compressed_pair_elemINS_21__map_node_destructorINS_9allocatorINS_11__tree_nodeINS_12__value_typeIciEEPvEEEEEELi1ELb0EE5__getB8ue170006Ev, symObjAddr: 0x2DF0, symBinAddr: 0x1000063B0, symSize: 0x14 }
  - { offsetInCU: 0xF0E1, offset: 0xF0E1, size: 0x8, addend: 0x0, symName: __ZNSt3__19allocatorINS_11__tree_nodeINS_12__value_typeIciEEPvEEE9constructB8ue170006IiJEEEvPT_DpOT0_, symObjAddr: 0x2E04, symBinAddr: 0x1000063C4, symSize: 0x1C }
  - { offsetInCU: 0xF123, offset: 0xF123, size: 0x8, addend: 0x0, symName: __ZNSt3__16__treeINS_12__value_typeIciEENS_19__map_value_compareIcS2_NS_4lessIcEELb1EEENS_9allocatorIS2_EEE4sizeB8ue170006Ev, symObjAddr: 0x3160, symBinAddr: 0x100006720, symSize: 0x28 }
  - { offsetInCU: 0xF149, offset: 0xF149, size: 0x8, addend: 0x0, symName: __ZNKSt3__116__tree_node_baseIPvE15__parent_unsafeB8ue170006Ev, symObjAddr: 0x3188, symBinAddr: 0x100006748, symSize: 0x18 }
  - { offsetInCU: 0xF16F, offset: 0xF16F, size: 0x8, addend: 0x0, symName: __ZNSt3__116__tree_node_baseIPvE12__set_parentB8ue170006EPS2_, symObjAddr: 0x3384, symBinAddr: 0x100006944, symSize: 0x20 }
  - { offsetInCU: 0xF1A4, offset: 0xF1A4, size: 0x8, addend: 0x0, symName: __ZNSt3__117__compressed_pairImNS_19__map_value_compareIcNS_12__value_typeIciEENS_4lessIcEELb1EEEE5firstB8ue170006Ev, symObjAddr: 0x33A4, symBinAddr: 0x100006964, symSize: 0x24 }
  - { offsetInCU: 0xF1CA, offset: 0xF1CA, size: 0x8, addend: 0x0, symName: __ZNSt3__122__compressed_pair_elemImLi0ELb0EE5__getB8ue170006Ev, symObjAddr: 0x33C8, symBinAddr: 0x100006988, symSize: 0x14 }
  - { offsetInCU: 0xF1F0, offset: 0xF1F0, size: 0x8, addend: 0x0, symName: __ZNSt3__117__compressed_pairIPNS_11__tree_nodeINS_12__value_typeIciEEPvEENS_21__map_node_destructorINS_9allocatorIS5_EEEEE5firstB8ue170006Ev, symObjAddr: 0x33DC, symBinAddr: 0x10000699C, symSize: 0x24 }
  - { offsetInCU: 0xF216, offset: 0xF216, size: 0x8, addend: 0x0, symName: __ZNSt3__122__compressed_pair_elemIPNS_11__tree_nodeINS_12__value_typeIciEEPvEELi0ELb0EE5__getB8ue170006Ev, symObjAddr: 0x3400, symBinAddr: 0x1000069C0, symSize: 0x14 }
  - { offsetInCU: 0xF23C, offset: 0xF23C, size: 0x8, addend: 0x0, symName: __ZNSt3__110unique_ptrINS_11__tree_nodeINS_12__value_typeIciEEPvEENS_21__map_node_destructorINS_9allocatorIS5_EEEEED2B8ue170006Ev, symObjAddr: 0x3414, symBinAddr: 0x1000069D4, symSize: 0x30 }
  - { offsetInCU: 0xF265, offset: 0xF265, size: 0x8, addend: 0x0, symName: __ZNSt3__110unique_ptrINS_11__tree_nodeINS_12__value_typeIciEEPvEENS_21__map_node_destructorINS_9allocatorIS5_EEEEE5resetB8ue170006EPS5_, symObjAddr: 0x3444, symBinAddr: 0x100006A04, symSize: 0x78 }
  - { offsetInCU: 0xF2A9, offset: 0xF2A9, size: 0x8, addend: 0x0, symName: __ZNSt3__121__map_node_destructorINS_9allocatorINS_11__tree_nodeINS_12__value_typeIciEEPvEEEEEclB8ue170006EPS6_, symObjAddr: 0x34BC, symBinAddr: 0x100006A7C, symSize: 0xE4 }
  - { offsetInCU: 0xF2DE, offset: 0xF2DE, size: 0x8, addend: 0x0, symName: __ZNSt3__116allocator_traitsINS_9allocatorINS_11__tree_nodeINS_12__value_typeIciEEPvEEEEE7destroyB8ue170006IivvEEvRS7_PT_, symObjAddr: 0x35A0, symBinAddr: 0x100006B60, symSize: 0x14 }
  - { offsetInCU: 0xF319, offset: 0xF319, size: 0x8, addend: 0x0, symName: __ZNSt3__116allocator_traitsINS_9allocatorINS_11__tree_nodeINS_12__value_typeIciEEPvEEEEE7destroyB8ue170006IKcvvEEvRS7_PT_, symObjAddr: 0x35B4, symBinAddr: 0x100006B74, symSize: 0x14 }
  - { offsetInCU: 0xF354, offset: 0xF354, size: 0x8, addend: 0x0, symName: __ZNSt3__16__treeIiNS_4lessIiEENS_9allocatorIiEEE15__insert_uniqueB8ue170006ERKi, symObjAddr: 0x35C8, symBinAddr: 0x100006B88, symSize: 0x50 }
  - { offsetInCU: 0xF389, offset: 0xF389, size: 0x8, addend: 0x0, symName: __ZNSt3__14pairINS_21__tree_const_iteratorIiPNS_11__tree_nodeIiPvEElEEbEC1B8ue170006INS_15__tree_iteratorIiS5_lEEbEERKNS0_IT_T0_EE, symObjAddr: 0x3618, symBinAddr: 0x100006BD8, symSize: 0x34 }
  - { offsetInCU: 0xF3D2, offset: 0xF3D2, size: 0x8, addend: 0x0, symName: __ZNSt3__16__treeIiNS_4lessIiEENS_9allocatorIiEEE25__emplace_unique_key_argsIiJRKiEEENS_4pairINS_15__tree_iteratorIiPNS_11__tree_nodeIiPvEElEEbEERKT_DpOT0_, symObjAddr: 0x364C, symBinAddr: 0x100006C0C, symSize: 0xF0 }
  - { offsetInCU: 0xF47E, offset: 0xF47E, size: 0x8, addend: 0x0, symName: __ZNSt3__122__tree_key_value_typesIiE9__get_keyB8ue170006ERKi, symObjAddr: 0x373C, symBinAddr: 0x100006CFC, symSize: 0x14 }
  - { offsetInCU: 0xF4A2, offset: 0xF4A2, size: 0x8, addend: 0x0, symName: __ZNSt3__16__treeIiNS_4lessIiEENS_9allocatorIiEEE12__find_equalIiEERPNS_16__tree_node_baseIPvEERPNS_15__tree_end_nodeISA_EERKT_, symObjAddr: 0x3750, symBinAddr: 0x100006D10, symSize: 0x184 }
  - { offsetInCU: 0xF50F, offset: 0xF50F, size: 0x8, addend: 0x0, symName: __ZNSt3__16__treeIiNS_4lessIiEENS_9allocatorIiEEE16__construct_nodeIJRKiEEENS_10unique_ptrINS_11__tree_nodeIiPvEENS_22__tree_node_destructorINS3_ISC_EEEEEEDpOT_, symObjAddr: 0x38D4, symBinAddr: 0x100006E94, symSize: 0x110 }
  - { offsetInCU: 0xF570, offset: 0xF570, size: 0x8, addend: 0x0, symName: __ZNSt3__16__treeIiNS_4lessIiEENS_9allocatorIiEEE16__insert_node_atEPNS_15__tree_end_nodeIPNS_16__tree_node_baseIPvEEEERSA_SA_, symObjAddr: 0x39E4, symBinAddr: 0x100006FA4, symSize: 0xCC }
  - { offsetInCU: 0xF5C5, offset: 0xF5C5, size: 0x8, addend: 0x0, symName: __ZNKSt3__110unique_ptrINS_11__tree_nodeIiPvEENS_22__tree_node_destructorINS_9allocatorIS3_EEEEE3getB8ue170006Ev, symObjAddr: 0x3AB0, symBinAddr: 0x100007070, symSize: 0x28 }
  - { offsetInCU: 0xF5EB, offset: 0xF5EB, size: 0x8, addend: 0x0, symName: __ZNSt3__110unique_ptrINS_11__tree_nodeIiPvEENS_22__tree_node_destructorINS_9allocatorIS3_EEEEE7releaseB8ue170006Ev, symObjAddr: 0x3AD8, symBinAddr: 0x100007098, symSize: 0x44 }
  - { offsetInCU: 0xF620, offset: 0xF620, size: 0x8, addend: 0x0, symName: __ZNSt3__110unique_ptrINS_11__tree_nodeIiPvEENS_22__tree_node_destructorINS_9allocatorIS3_EEEEED1B8ue170006Ev, symObjAddr: 0x3B1C, symBinAddr: 0x1000070DC, symSize: 0x2C }
  - { offsetInCU: 0xF649, offset: 0xF649, size: 0x8, addend: 0x0, symName: __ZNSt3__115__tree_iteratorIiPNS_11__tree_nodeIiPvEElEC1B8ue170006ES4_, symObjAddr: 0x3B48, symBinAddr: 0x100007108, symSize: 0x34 }
  - { offsetInCU: 0xF681, offset: 0xF681, size: 0x8, addend: 0x0, symName: __ZNSt3__14pairINS_15__tree_iteratorIiPNS_11__tree_nodeIiPvEElEEbEC1B8ue170006ERKS6_RKb, symObjAddr: 0x3B7C, symBinAddr: 0x10000713C, symSize: 0x3C }
  - { offsetInCU: 0xF6C6, offset: 0xF6C6, size: 0x8, addend: 0x0, symName: __ZNKSt3__16__treeIiNS_4lessIiEENS_9allocatorIiEEE10__root_ptrB8ue170006Ev, symObjAddr: 0x3BB8, symBinAddr: 0x100007178, symSize: 0x24 }
  - { offsetInCU: 0xF6EC, offset: 0xF6EC, size: 0x8, addend: 0x0, symName: __ZNSt3__16__treeIiNS_4lessIiEENS_9allocatorIiEEE10value_compB8ue170006Ev, symObjAddr: 0x3BDC, symBinAddr: 0x10000719C, symSize: 0x28 }
  - { offsetInCU: 0xF712, offset: 0xF712, size: 0x8, addend: 0x0, symName: __ZNKSt3__14lessIiEclB8ue170006ERKiS3_, symObjAddr: 0x3C04, symBinAddr: 0x1000071C4, symSize: 0x34 }
  - { offsetInCU: 0xF756, offset: 0xF756, size: 0x8, addend: 0x0, symName: __ZNSt3__117__compressed_pairImNS_4lessIiEEE6secondB8ue170006Ev, symObjAddr: 0x3C38, symBinAddr: 0x1000071F8, symSize: 0x24 }
  - { offsetInCU: 0xF77C, offset: 0xF77C, size: 0x8, addend: 0x0, symName: __ZNSt3__122__compressed_pair_elemINS_4lessIiEELi1ELb1EE5__getB8ue170006Ev, symObjAddr: 0x3C5C, symBinAddr: 0x10000721C, symSize: 0x14 }
  - { offsetInCU: 0xF7A2, offset: 0xF7A2, size: 0x8, addend: 0x0, symName: __ZNSt3__116allocator_traitsINS_9allocatorINS_11__tree_nodeIiPvEEEEE8allocateB8ue170006ERS5_m, symObjAddr: 0x3C70, symBinAddr: 0x100007230, symSize: 0x2C }
  - { offsetInCU: 0xF7D5, offset: 0xF7D5, size: 0x8, addend: 0x0, symName: __ZNSt3__122__tree_node_destructorINS_9allocatorINS_11__tree_nodeIiPvEEEEEC1B8ue170006ERS5_b, symObjAddr: 0x3C9C, symBinAddr: 0x10000725C, symSize: 0x48 }
  - { offsetInCU: 0xF821, offset: 0xF821, size: 0x8, addend: 0x0, symName: __ZNSt3__110unique_ptrINS_11__tree_nodeIiPvEENS_22__tree_node_destructorINS_9allocatorIS3_EEEEEC1B8ue170006ILb1EvEEPS3_NS_16__dependent_typeINS_27__unique_ptr_deleter_sfinaeIS7_EEXT_EE20__good_rval_ref_typeE, symObjAddr: 0x3CE4, symBinAddr: 0x1000072A4, symSize: 0x3C }
  - { offsetInCU: 0xF871, offset: 0xF871, size: 0x8, addend: 0x0, symName: __ZNSt3__116allocator_traitsINS_9allocatorINS_11__tree_nodeIiPvEEEEE9constructB8ue170006IiJRKiEvEEvRS5_PT_DpOT0_, symObjAddr: 0x3D20, symBinAddr: 0x1000072E0, symSize: 0x34 }
  - { offsetInCU: 0xF8C8, offset: 0xF8C8, size: 0x8, addend: 0x0, symName: __ZNKSt3__110unique_ptrINS_11__tree_nodeIiPvEENS_22__tree_node_destructorINS_9allocatorIS3_EEEEEptB8ue170006Ev, symObjAddr: 0x3D54, symBinAddr: 0x100007314, symSize: 0x28 }
  - { offsetInCU: 0xF8EE, offset: 0xF8EE, size: 0x8, addend: 0x0, symName: __ZNSt3__110unique_ptrINS_11__tree_nodeIiPvEENS_22__tree_node_destructorINS_9allocatorIS3_EEEEE11get_deleterB8ue170006Ev, symObjAddr: 0x3D7C, symBinAddr: 0x10000733C, symSize: 0x24 }
  - { offsetInCU: 0xF914, offset: 0xF914, size: 0x8, addend: 0x0, symName: __ZNSt3__19allocatorINS_11__tree_nodeIiPvEEE8allocateB8ue170006Em, symObjAddr: 0x3DA0, symBinAddr: 0x100007360, symSize: 0x84 }
  - { offsetInCU: 0xF952, offset: 0xF952, size: 0x8, addend: 0x0, symName: __ZNSt3__116allocator_traitsINS_9allocatorINS_11__tree_nodeIiPvEEEEE8max_sizeB8ue170006IS5_vEEmRKS5_, symObjAddr: 0x3E24, symBinAddr: 0x1000073E4, symSize: 0x24 }
  - { offsetInCU: 0xF980, offset: 0xF980, size: 0x8, addend: 0x0, symName: __ZNKSt3__19allocatorINS_11__tree_nodeIiPvEEE8max_sizeB8ue170006Ev, symObjAddr: 0x3E48, symBinAddr: 0x100007408, symSize: 0x14 }
  - { offsetInCU: 0xF9A6, offset: 0xF9A6, size: 0x8, addend: 0x0, symName: __ZNSt3__122__tree_node_destructorINS_9allocatorINS_11__tree_nodeIiPvEEEEEC2B8ue170006ERS5_b, symObjAddr: 0x3E5C, symBinAddr: 0x10000741C, symSize: 0x38 }
  - { offsetInCU: 0xF9EE, offset: 0xF9EE, size: 0x8, addend: 0x0, symName: __ZNSt3__110unique_ptrINS_11__tree_nodeIiPvEENS_22__tree_node_destructorINS_9allocatorIS3_EEEEEC2B8ue170006ILb1EvEEPS3_NS_16__dependent_typeINS_27__unique_ptr_deleter_sfinaeIS7_EEXT_EE20__good_rval_ref_typeE, symObjAddr: 0x3E94, symBinAddr: 0x100007454, symSize: 0x5C }
  - { offsetInCU: 0xFA3E, offset: 0xFA3E, size: 0x8, addend: 0x0, symName: __ZNSt3__117__compressed_pairIPNS_11__tree_nodeIiPvEENS_22__tree_node_destructorINS_9allocatorIS3_EEEEEC1B8ue170006IRS4_S8_EEOT_OT0_, symObjAddr: 0x3EF0, symBinAddr: 0x1000074B0, symSize: 0x3C }
  - { offsetInCU: 0xFA95, offset: 0xFA95, size: 0x8, addend: 0x0, symName: __ZNSt3__117__compressed_pairIPNS_11__tree_nodeIiPvEENS_22__tree_node_destructorINS_9allocatorIS3_EEEEEC2B8ue170006IRS4_S8_EEOT_OT0_, symObjAddr: 0x3F2C, symBinAddr: 0x1000074EC, symSize: 0x48 }
  - { offsetInCU: 0xFAEC, offset: 0xFAEC, size: 0x8, addend: 0x0, symName: __ZNSt3__122__compressed_pair_elemIPNS_11__tree_nodeIiPvEELi0ELb0EEC2B8ue170006IRS4_vEEOT_, symObjAddr: 0x3F74, symBinAddr: 0x100007534, symSize: 0x24 }
  - { offsetInCU: 0xFB2E, offset: 0xFB2E, size: 0x8, addend: 0x0, symName: __ZNSt3__122__compressed_pair_elemINS_22__tree_node_destructorINS_9allocatorINS_11__tree_nodeIiPvEEEEEELi1ELb0EEC2B8ue170006IS7_vEEOT_, symObjAddr: 0x3F98, symBinAddr: 0x100007558, symSize: 0x24 }
  - { offsetInCU: 0xFB70, offset: 0xFB70, size: 0x8, addend: 0x0, symName: __ZNSt3__19allocatorINS_11__tree_nodeIiPvEEE9constructB8ue170006IiJRKiEEEvPT_DpOT0_, symObjAddr: 0x3FBC, symBinAddr: 0x10000757C, symSize: 0x28 }
  - { offsetInCU: 0xFBC6, offset: 0xFBC6, size: 0x8, addend: 0x0, symName: __ZNKSt3__117__compressed_pairIPNS_11__tree_nodeIiPvEENS_22__tree_node_destructorINS_9allocatorIS3_EEEEE5firstB8ue170006Ev, symObjAddr: 0x3FE4, symBinAddr: 0x1000075A4, symSize: 0x24 }
  - { offsetInCU: 0xFBEC, offset: 0xFBEC, size: 0x8, addend: 0x0, symName: __ZNKSt3__122__compressed_pair_elemIPNS_11__tree_nodeIiPvEELi0ELb0EE5__getB8ue170006Ev, symObjAddr: 0x4008, symBinAddr: 0x1000075C8, symSize: 0x14 }
  - { offsetInCU: 0xFC12, offset: 0xFC12, size: 0x8, addend: 0x0, symName: __ZNSt3__117__compressed_pairIPNS_11__tree_nodeIiPvEENS_22__tree_node_destructorINS_9allocatorIS3_EEEEE6secondB8ue170006Ev, symObjAddr: 0x401C, symBinAddr: 0x1000075DC, symSize: 0x28 }
  - { offsetInCU: 0xFC38, offset: 0xFC38, size: 0x8, addend: 0x0, symName: __ZNSt3__122__compressed_pair_elemINS_22__tree_node_destructorINS_9allocatorINS_11__tree_nodeIiPvEEEEEELi1ELb0EE5__getB8ue170006Ev, symObjAddr: 0x4044, symBinAddr: 0x100007604, symSize: 0x14 }
  - { offsetInCU: 0xFC5E, offset: 0xFC5E, size: 0x8, addend: 0x0, symName: __ZNSt3__16__treeIiNS_4lessIiEENS_9allocatorIiEEE4sizeB8ue170006Ev, symObjAddr: 0x4058, symBinAddr: 0x100007618, symSize: 0x28 }
  - { offsetInCU: 0xFC84, offset: 0xFC84, size: 0x8, addend: 0x0, symName: __ZNSt3__117__compressed_pairImNS_4lessIiEEE5firstB8ue170006Ev, symObjAddr: 0x4080, symBinAddr: 0x100007640, symSize: 0x24 }
  - { offsetInCU: 0xFCAA, offset: 0xFCAA, size: 0x8, addend: 0x0, symName: __ZNSt3__117__compressed_pairIPNS_11__tree_nodeIiPvEENS_22__tree_node_destructorINS_9allocatorIS3_EEEEE5firstB8ue170006Ev, symObjAddr: 0x40A4, symBinAddr: 0x100007664, symSize: 0x24 }
  - { offsetInCU: 0xFCD0, offset: 0xFCD0, size: 0x8, addend: 0x0, symName: __ZNSt3__122__compressed_pair_elemIPNS_11__tree_nodeIiPvEELi0ELb0EE5__getB8ue170006Ev, symObjAddr: 0x40C8, symBinAddr: 0x100007688, symSize: 0x14 }
  - { offsetInCU: 0xFCF6, offset: 0xFCF6, size: 0x8, addend: 0x0, symName: __ZNSt3__110unique_ptrINS_11__tree_nodeIiPvEENS_22__tree_node_destructorINS_9allocatorIS3_EEEEED2B8ue170006Ev, symObjAddr: 0x40DC, symBinAddr: 0x10000769C, symSize: 0x30 }
  - { offsetInCU: 0xFD1F, offset: 0xFD1F, size: 0x8, addend: 0x0, symName: __ZNSt3__110unique_ptrINS_11__tree_nodeIiPvEENS_22__tree_node_destructorINS_9allocatorIS3_EEEEE5resetB8ue170006EPS3_, symObjAddr: 0x410C, symBinAddr: 0x1000076CC, symSize: 0x78 }
  - { offsetInCU: 0xFD63, offset: 0xFD63, size: 0x8, addend: 0x0, symName: __ZNSt3__122__tree_node_destructorINS_9allocatorINS_11__tree_nodeIiPvEEEEEclB8ue170006EPS4_, symObjAddr: 0x4184, symBinAddr: 0x100007744, symSize: 0x88 }
  - { offsetInCU: 0xFD98, offset: 0xFD98, size: 0x8, addend: 0x0, symName: __ZNSt3__115__tree_iteratorIiPNS_11__tree_nodeIiPvEElEC2B8ue170006ES4_, symObjAddr: 0x420C, symBinAddr: 0x1000077CC, symSize: 0x20 }
  - { offsetInCU: 0xFDD1, offset: 0xFDD1, size: 0x8, addend: 0x0, symName: __ZNSt3__14pairINS_15__tree_iteratorIiPNS_11__tree_nodeIiPvEElEEbEC2B8ue170006ERKS6_RKb, symObjAddr: 0x422C, symBinAddr: 0x1000077EC, symSize: 0x38 }
  - { offsetInCU: 0xFE17, offset: 0xFE17, size: 0x8, addend: 0x0, symName: __ZNSt3__14pairINS_21__tree_const_iteratorIiPNS_11__tree_nodeIiPvEElEEbEC2B8ue170006INS_15__tree_iteratorIiS5_lEEbEERKNS0_IT_T0_EE, symObjAddr: 0x4264, symBinAddr: 0x100007824, symSize: 0x50 }
  - { offsetInCU: 0xFE60, offset: 0xFE60, size: 0x8, addend: 0x0, symName: __ZNSt3__121__tree_const_iteratorIiPNS_11__tree_nodeIiPvEElEC1B8ue170006ENS_15__tree_iteratorIiS4_lEE, symObjAddr: 0x42B4, symBinAddr: 0x100007874, symSize: 0x34 }
  - { offsetInCU: 0xFE98, offset: 0xFE98, size: 0x8, addend: 0x0, symName: __ZNSt3__121__tree_const_iteratorIiPNS_11__tree_nodeIiPvEElEC2B8ue170006ENS_15__tree_iteratorIiS4_lEE, symObjAddr: 0x42E8, symBinAddr: 0x1000078A8, symSize: 0x20 }
  - { offsetInCU: 0xFED1, offset: 0xFED1, size: 0x8, addend: 0x0, symName: __ZNKSt3__16__treeIiNS_4lessIiEENS_9allocatorIiEEE4sizeB8ue170006Ev, symObjAddr: 0x4308, symBinAddr: 0x1000078C8, symSize: 0x28 }
  - { offsetInCU: 0xFEF7, offset: 0xFEF7, size: 0x8, addend: 0x0, symName: __ZNKSt3__117__compressed_pairImNS_4lessIiEEE5firstB8ue170006Ev, symObjAddr: 0x4330, symBinAddr: 0x1000078F0, symSize: 0x24 }
  - { offsetInCU: 0xFF1D, offset: 0xFF1D, size: 0x8, addend: 0x0, symName: __ZNKSt3__122__compressed_pair_elemImLi0ELb0EE5__getB8ue170006Ev, symObjAddr: 0x4354, symBinAddr: 0x100007914, symSize: 0x14 }
...
